; Function Attrs: null_pointer_is_valid sspstrong uwtable
define internal i32 @dissect_ProtocolIEFieldValue(ptr noundef %0, ptr noundef %1, ptr noundef %2, ptr readnone captures(none) %3) #0 {
  %5 = alloca %struct.f1ap_ctx_t, align 4
  call void @llvm.lifetime.start.p0(i64 16, ptr nonnull %5) #6
  %6 = tail call ptr @wmem_file_scope()
  %7 = load i32, ptr @proto_f1ap, align 4
  %8 = tail call ptr @p_get_proto_data(ptr noundef %6, ptr noundef %1, i32 noundef %7, i32 noundef 0)
  %.not.i = icmp eq ptr %8, null
  br i1 %.not.i, label %9, label %f1ap_get_private_data.exit

9:                                                ; preds = %4
  %10 = tail call ptr @wmem_file_scope()
  %11 = tail call noalias dereferenceable_or_null(48) ptr @wmem_alloc0(ptr noundef %10, i64 noundef 48) #7
  %12 = getelementptr inbounds nuw i8, ptr %11, i64 28
  store i32 -1, ptr %12, align 4
  %13 = getelementptr inbounds nuw i8, ptr %11, i64 32
  store i32 1, ptr %13, align 8
  %14 = tail call ptr @wmem_file_scope()
  %15 = load i32, ptr @proto_f1ap, align 4
  tail call void @p_add_proto_data(ptr noundef %14, ptr noundef %1, i32 noundef %15, i32 noundef 0, ptr noundef %11)
  br label %f1ap_get_private_data.exit

f1ap_get_private_data.exit:                       ; preds = %4, %9
  %.0.i = phi ptr [ %8, %4 ], [ %11, %9 ]
  %16 = load i32, ptr %.0.i, align 8
  store i32 %16, ptr %5, align 4
  %17 = getelementptr inbounds nuw i8, ptr %.0.i, i64 4
  %18 = load i32, ptr %17, align 4
  %19 = getelementptr inbounds nuw i8, ptr %5, i64 4
  store i32 %18, ptr %19, align 4
  %20 = getelementptr inbounds nuw i8, ptr %.0.i, i64 8
  %21 = load i32, ptr %20, align 8
  %22 = getelementptr inbounds nuw i8, ptr %5, i64 8
  store i32 %21, ptr %22, align 4
  %23 = getelementptr inbounds nuw i8, ptr %.0.i, i64 12
  %24 = load i32, ptr %23, align 4
  %25 = getelementptr inbounds nuw i8, ptr %5, i64 12
  store i32 %24, ptr %25, align 4
  %26 = load ptr, ptr @f1ap_ies_dissector_table, align 8
  %27 = call i32 @dissector_try_uint_with_data(ptr noundef %26, i32 noundef %21, ptr noundef %0, ptr noundef %1, ptr noundef %2, i1 noundef zeroext false, ptr noundef nonnull %5)
  %.not = icmp eq i32 %27, 0
  br i1 %.not, label %30, label %28

28:                                               ; preds = %f1ap_get_private_data.exit
  %29 = call i32 @tvb_captured_length(ptr noundef %0)
  br label %30

30:                                               ; preds = %f1ap_get_private_data.exit, %28
  %31 = phi i32 [ %29, %28 ], [ 0, %f1ap_get_private_data.exit ]
  call void @llvm.lifetime.end.p0(i64 16, ptr nonnull %5) #6
  ret i32 %31
}